target datalayout = "e-m:e-p270:32:32-p271:32:32-p272:64:64-i64:64-i128:128-f80:128-n8:16:32:64-S128"
target triple = "x86_64-pc-linux-gnu"

%union.U = type { double }

@INFSTR = internal constant [9 x i8] c"Infinity\00", align 1
@NANSTR = internal constant [4 x i8] c"NaN\00", align 1
@ZEROSTR = internal constant [2 x i8] c"0\00", align 1

; Function Attrs: nounwind sspstrong uwtable
define hidden ptr @ruby_hdtoa(double noundef %0, ptr noundef %1, i32 noundef %2, ptr noundef %3, ptr noundef %4, ptr noundef %5) #2 {
  %7 = alloca ptr, align 8
  %8 = alloca double, align 8
  %9 = alloca ptr, align 8
  %10 = alloca i32, align 4
  %11 = alloca ptr, align 8
  %12 = alloca ptr, align 8
  %13 = alloca ptr, align 8
  %14 = alloca %union.U, align 8
  %15 = alloca ptr, align 8
  %16 = alloca ptr, align 8
  %17 = alloca i32, align 4
  %18 = alloca i32, align 4
  %19 = alloca i32, align 4
  %20 = alloca i32, align 4
  %21 = alloca float, align 4
  %22 = alloca i32, align 4
  store double %0, ptr %8, align 8, !tbaa !37
  store ptr %1, ptr %9, align 8, !tbaa !7
  store i32 %2, ptr %10, align 4, !tbaa !20
  store ptr %3, ptr %11, align 8, !tbaa !22
  store ptr %4, ptr %12, align 8, !tbaa !22
  store ptr %5, ptr %13, align 8, !tbaa !25
  call void @llvm.lifetime.start.p0(i64 8, ptr %14) #16
  call void @llvm.lifetime.start.p0(i64 8, ptr %15) #16
  call void @llvm.lifetime.start.p0(i64 8, ptr %16) #16
  call void @llvm.lifetime.start.p0(i64 4, ptr %17) #16
  call void @llvm.lifetime.start.p0(i64 4, ptr %18) #16
  call void @llvm.lifetime.start.p0(i64 4, ptr %19) #16
  %23 = load double, ptr %8, align 8, !tbaa !37
  store double %23, ptr %14, align 8, !tbaa !16
  %24 = getelementptr [2 x i32], ptr %14, i64 0, i64 1
  %25 = load i32, ptr %24, align 4, !tbaa !16
  %26 = and i32 %25, -2147483648
  %27 = icmp ne i32 %26, 0
  br i1 %27, label %28, label %33

28:                                               ; preds = %6
  %29 = load ptr, ptr %12, align 8, !tbaa !22
  store i32 1, ptr %29, align 4, !tbaa !20
  %30 = getelementptr [2 x i32], ptr %14, i64 0, i64 1
  %31 = load i32, ptr %30, align 4, !tbaa !16
  %32 = and i32 %31, 2147483647
  store i32 %32, ptr %30, align 4, !tbaa !16
  br label %35

33:                                               ; preds = %6
  %34 = load ptr, ptr %12, align 8, !tbaa !22
  store i32 0, ptr %34, align 4, !tbaa !20
  br label %35

35:                                               ; preds = %33, %28
  %36 = load double, ptr %8, align 8, !tbaa !37
  %37 = call double @llvm.fabs.f64(double %36) #23
  %38 = fcmp oeq double %37, 0x7FF0000000000000
  %39 = bitcast double %36 to i64
  %40 = icmp slt i64 %39, 0
  %41 = select i1 %40, i32 -1, i32 1
  %42 = select i1 %38, i32 %41, i32 0
  %43 = icmp ne i32 %42, 0
  br i1 %43, label %44, label %48

44:                                               ; preds = %35
  %45 = load ptr, ptr %11, align 8, !tbaa !22
  store i32 2147483647, ptr %45, align 4, !tbaa !20
  %46 = load ptr, ptr %13, align 8, !tbaa !25
  %47 = call ptr @nrv_alloc(ptr noundef @INFSTR, ptr noundef %46, i64 noundef 9)
  store ptr %47, ptr %7, align 8
  store i32 1, ptr %20, align 4
  br label %204

48:                                               ; preds = %35
  %49 = load double, ptr %8, align 8, !tbaa !37
  %50 = call i1 @llvm.is.fpclass.f64(double %49, i32 3)
  br i1 %50, label %51, label %55

51:                                               ; preds = %48
  %52 = load ptr, ptr %11, align 8, !tbaa !22
  store i32 2147483647, ptr %52, align 4, !tbaa !20
  %53 = load ptr, ptr %13, align 8, !tbaa !25
  %54 = call ptr @nrv_alloc(ptr noundef @NANSTR, ptr noundef %53, i64 noundef 4)
  store ptr %54, ptr %7, align 8
  store i32 1, ptr %20, align 4
  br label %204

55:                                               ; preds = %48
  %56 = load double, ptr %8, align 8, !tbaa !37
  %57 = fcmp oeq double %56, 0.000000e+00
  br i1 %57, label %58, label %62

58:                                               ; preds = %55
  %59 = load ptr, ptr %11, align 8, !tbaa !22
  store i32 1, ptr %59, align 4, !tbaa !20
  %60 = load ptr, ptr %13, align 8, !tbaa !25
  %61 = call ptr @nrv_alloc(ptr noundef @ZEROSTR, ptr noundef %60, i64 noundef 2)
  store ptr %61, ptr %7, align 8
  store i32 1, ptr %20, align 4
  br label %204

62:                                               ; preds = %55
  %63 = getelementptr [2 x i32], ptr %14, i64 0, i64 1
  %64 = load i32, ptr %63, align 4, !tbaa !16
  %65 = lshr i32 %64, 20
  %66 = and i32 %65, -1048577
  %67 = icmp ne i32 %66, 0
  br i1 %67, label %68, label %75

68:                                               ; preds = %62
  %69 = getelementptr [2 x i32], ptr %14, i64 0, i64 1
  %70 = load i32, ptr %69, align 4, !tbaa !16
  %71 = lshr i32 %70, 20
  %72 = and i32 %71, -1048577
  %73 = sub i32 %72, 1022
  %74 = load ptr, ptr %11, align 8, !tbaa !22
  store i32 %73, ptr %74, align 4, !tbaa !20
  br label %84

75:                                               ; preds = %62
  %76 = load double, ptr %14, align 8, !tbaa !16
  %77 = fmul double %76, 0x6010000000000000
  store double %77, ptr %14, align 8, !tbaa !16
  %78 = getelementptr [2 x i32], ptr %14, i64 0, i64 1
  %79 = load i32, ptr %78, align 4, !tbaa !16
  %80 = lshr i32 %79, 20
  %81 = and i32 %80, -1048577
  %82 = sub i32 %81, 1536
  %83 = load ptr, ptr %11, align 8, !tbaa !22
  store i32 %82, ptr %83, align 4, !tbaa !20
  br label %84

84:                                               ; preds = %75, %68
  br label %85

85:                                               ; preds = %84
  br label %86

86:                                               ; preds = %85
  br label %87

87:                                               ; preds = %86
  %88 = load i32, ptr %10, align 4, !tbaa !20
  %89 = icmp eq i32 %88, 0
  br i1 %89, label %90, label %91

90:                                               ; preds = %87
  store i32 1, ptr %10, align 4, !tbaa !20
  br label %91

91:                                               ; preds = %90, %87
  %92 = load i32, ptr %10, align 4, !tbaa !20
  %93 = icmp sgt i32 %92, 0
  br i1 %93, label %94, label %96

94:                                               ; preds = %91
  %95 = load i32, ptr %10, align 4, !tbaa !20
  br label %97

96:                                               ; preds = %91
  br label %97

97:                                               ; preds = %96, %94
  %98 = phi i32 [ %95, %94 ], [ 15, %96 ]
  store i32 %98, ptr %17, align 4, !tbaa !20
  %99 = load i32, ptr %17, align 4, !tbaa !20
  %100 = add i32 %99, 1
  %101 = sext i32 %100 to i64
  %102 = call noalias ptr @malloc(i64 noundef %101) #22
  store ptr %102, ptr %16, align 8, !tbaa !7
  %103 = load i32, ptr %10, align 4, !tbaa !20
  %104 = icmp sgt i32 15, %103
  br i1 %104, label %105, label %138

105:                                              ; preds = %97
  %106 = load i32, ptr %10, align 4, !tbaa !20
  %107 = icmp sgt i32 %106, 0
  br i1 %107, label %108, label %138

108:                                              ; preds = %105
  call void @llvm.lifetime.start.p0(i64 4, ptr %21) #16
  store float 1.000000e+00, ptr %21, align 4, !tbaa !97
  call void @llvm.lifetime.start.p0(i64 4, ptr %22) #16
  %109 = load i32, ptr %10, align 4, !tbaa !20
  %110 = mul i32 4, %109
  %111 = add i32 %110, 1024
  %112 = sub i32 %111, 4
  %113 = sub i32 %112, 53
  store i32 %113, ptr %22, align 4, !tbaa !20
  %114 = getelementptr [2 x i32], ptr %14, i64 0, i64 1
  %115 = load i32, ptr %114, align 4, !tbaa !16
  %116 = and i32 %115, -2146435073
  %117 = load i32, ptr %22, align 4, !tbaa !20
  %118 = shl i32 %117, 20
  %119 = or i32 %116, %118
  %120 = getelementptr [2 x i32], ptr %14, i64 0, i64 1
  store i32 %119, ptr %120, align 4, !tbaa !16
  %121 = load float, ptr %21, align 4, !tbaa !97
  %122 = fpext float %121 to double
  %123 = load double, ptr %14, align 8, !tbaa !16
  %124 = fadd double %123, %122
  store double %124, ptr %14, align 8, !tbaa !16
  %125 = load float, ptr %21, align 4, !tbaa !97
  %126 = fpext float %125 to double
  %127 = load double, ptr %14, align 8, !tbaa !16
  %128 = fsub double %127, %126
  store double %128, ptr %14, align 8, !tbaa !16
  %129 = getelementptr [2 x i32], ptr %14, i64 0, i64 1
  %130 = load i32, ptr %129, align 4, !tbaa !16
  %131 = lshr i32 %130, 20
  %132 = and i32 %131, -1048577
  %133 = load i32, ptr %22, align 4, !tbaa !20
  %134 = sub i32 %132, %133
  %135 = load ptr, ptr %11, align 8, !tbaa !22
  %136 = load i32, ptr %135, align 4, !tbaa !20
  %137 = add i32 %136, %134
  store i32 %137, ptr %135, align 4, !tbaa !20
  call void @llvm.lifetime.end.p0(i64 4, ptr %22) #16
  call void @llvm.lifetime.end.p0(i64 4, ptr %21) #16
  br label %138

138:                                              ; preds = %108, %105, %97
  %139 = getelementptr [2 x i32], ptr %14, i64 0, i64 1
  %140 = load i32, ptr %139, align 4, !tbaa !16
  %141 = and i32 %140, 1048575
  store i32 %141, ptr %18, align 4, !tbaa !20
  %142 = getelementptr [2 x i32], ptr %14, i64 0, i64 0
  %143 = load i32, ptr %142, align 8, !tbaa !16
  store i32 %143, ptr %19, align 4, !tbaa !20
  %144 = load ptr, ptr %16, align 8, !tbaa !7
  store i8 49, ptr %144, align 1, !tbaa !16
  %145 = load ptr, ptr %16, align 8, !tbaa !7
  %146 = getelementptr i8, ptr %145, i64 1
  store ptr %146, ptr %15, align 8, !tbaa !7
  br label %147

147:                                              ; preds = %170, %138
  %148 = load ptr, ptr %15, align 8, !tbaa !7
  %149 = load ptr, ptr %16, align 8, !tbaa !7
  %150 = load i32, ptr %17, align 4, !tbaa !20
  %151 = sext i32 %150 to i64
  %152 = getelementptr i8, ptr %149, i64 %151
  %153 = icmp ult ptr %148, %152
  br i1 %153, label %154, label %173

154:                                              ; preds = %147
  %155 = load ptr, ptr %9, align 8, !tbaa !7
  %156 = load i32, ptr %18, align 4, !tbaa !20
  %157 = lshr i32 %156, 16
  %158 = and i32 %157, 15
  %159 = zext i32 %158 to i64
  %160 = getelementptr i8, ptr %155, i64 %159
  %161 = load i8, ptr %160, align 1, !tbaa !16
  %162 = load ptr, ptr %15, align 8, !tbaa !7
  store i8 %161, ptr %162, align 1, !tbaa !16
  %163 = load i32, ptr %18, align 4, !tbaa !20
  %164 = shl i32 %163, 4
  %165 = load i32, ptr %19, align 4, !tbaa !20
  %166 = lshr i32 %165, 28
  %167 = or i32 %164, %166
  store i32 %167, ptr %18, align 4, !tbaa !20
  %168 = load i32, ptr %19, align 4, !tbaa !20
  %169 = shl i32 %168, 4
  store i32 %169, ptr %19, align 4, !tbaa !20
  br label %170

170:                                              ; preds = %154
  %171 = load ptr, ptr %15, align 8, !tbaa !7
  %172 = getelementptr i8, ptr %171, i32 1
  store ptr %172, ptr %15, align 8, !tbaa !7
  br label %147, !llvm.loop !99

173:                                              ; preds = %147
  %174 = load i32, ptr %10, align 4, !tbaa !20
  %175 = icmp slt i32 %174, 0
  br i1 %175, label %176, label %191

176:                                              ; preds = %173
  store i32 15, ptr %10, align 4, !tbaa !20
  br label %177

177:                                              ; preds = %187, %176
  %178 = load ptr, ptr %16, align 8, !tbaa !7
  %179 = load i32, ptr %10, align 4, !tbaa !20
  %180 = sub i32 %179, 1
  %181 = sext i32 %180 to i64
  %182 = getelementptr i8, ptr %178, i64 %181
  %183 = load i8, ptr %182, align 1, !tbaa !16
  %184 = sext i8 %183 to i32
  %185 = icmp eq i32 %184, 48
  br i1 %185, label %186, label %190

186:                                              ; preds = %177
  br label %187

187:                                              ; preds = %186
  %188 = load i32, ptr %10, align 4, !tbaa !20
  %189 = add i32 %188, -1
  store i32 %189, ptr %10, align 4, !tbaa !20
  br label %177, !llvm.loop !100

190:                                              ; preds = %177
  br label %191

191:                                              ; preds = %190, %173
  %192 = load ptr, ptr %16, align 8, !tbaa !7
  %193 = load i32, ptr %10, align 4, !tbaa !20
  %194 = sext i32 %193 to i64
  %195 = getelementptr i8, ptr %192, i64 %194
  store ptr %195, ptr %15, align 8, !tbaa !7
  %196 = load ptr, ptr %15, align 8, !tbaa !7
  store i8 0, ptr %196, align 1, !tbaa !16
  %197 = load ptr, ptr %13, align 8, !tbaa !25
  %198 = icmp ne ptr %197, null
  br i1 %198, label %199, label %202

199:                                              ; preds = %191
  %200 = load ptr, ptr %15, align 8, !tbaa !7
  %201 = load ptr, ptr %13, align 8, !tbaa !25
  store ptr %200, ptr %201, align 8, !tbaa !7
  br label %202

202:                                              ; preds = %199, %191
  %203 = load ptr, ptr %16, align 8, !tbaa !7
  store ptr %203, ptr %7, align 8
  store i32 1, ptr %20, align 4
  br label %204

204:                                              ; preds = %202, %58, %51, %44
  call void @llvm.lifetime.end.p0(i64 4, ptr %19) #16
  call void @llvm.lifetime.end.p0(i64 4, ptr %18) #16
  call void @llvm.lifetime.end.p0(i64 4, ptr %17) #16
  call void @llvm.lifetime.end.p0(i64 8, ptr %16) #16
  call void @llvm.lifetime.end.p0(i64 8, ptr %15) #16
  call void @llvm.lifetime.end.p0(i64 8, ptr %14) #16
  %205 = load ptr, ptr %7, align 8
  ret ptr %205
}