; Function Attrs: nofree nounwind sspstrong uwtable
define hidden noundef ptr @ruby_hdtoa(double noundef %0, ptr noundef readonly captures(none) %1, i32 noundef %2, ptr noundef writeonly captures(none) initializes((0, 4)) %3, ptr noundef writeonly captures(none) initializes((0, 4)) %4, ptr noundef captures(address_is_null) %5) local_unnamed_addr #12 {
  %7 = bitcast double %0 to i64
  %.not = icmp slt i64 %7, 0
  %8 = tail call double @llvm.fabs.f64(double %0)
  %.pre-phi = select i1 %.not, double %8, double %0
  %.lobit = lshr i64 %7, 63
  %.sink = trunc nuw nsw i64 %.lobit to i32
  store i32 %.sink, ptr %4, align 4, !tbaa !15
  %9 = fcmp oeq double %.pre-phi, 0x7FF0000000000000
  br i1 %9, label %._crit_edge.i, label %12

._crit_edge.i:                                    ; preds = %6
  store i32 2147483647, ptr %3, align 4, !tbaa !15
  %10 = tail call noalias dereferenceable_or_null(9) ptr @malloc(i64 noundef 9) #21
  store i8 73, ptr %10, align 1, !tbaa !7
  %scevgep = getelementptr nuw i8, ptr %10, i64 1
  store i64 34186468354778734, ptr %scevgep, align 1, !tbaa !7
  %.not9.i = icmp eq ptr %5, null
  br i1 %.not9.i, label %nrv_alloc.exit, label %11

11:                                               ; preds = %._crit_edge.i
  %scevgep101 = getelementptr nuw i8, ptr %10, i64 8
  store ptr %scevgep101, ptr %5, align 8, !tbaa !19
  br label %nrv_alloc.exit

12:                                               ; preds = %6
  %13 = fcmp uno double %0, 0.000000e+00
  br i1 %13, label %14, label %16

14:                                               ; preds = %12
  store i32 2147483647, ptr %3, align 4, !tbaa !15
  %15 = tail call fastcc ptr @nrv_alloc(ptr noundef nonnull @NANSTR, ptr noundef %5, i64 noundef 4)
  br label %nrv_alloc.exit

16:                                               ; preds = %12
  %17 = fcmp oeq double %0, 0.000000e+00
  br i1 %17, label %.lr.ph.i88, label %21

.lr.ph.i88:                                       ; preds = %16
  store i32 1, ptr %3, align 4, !tbaa !15
  %18 = tail call noalias dereferenceable_or_null(2) ptr @malloc(i64 noundef 2) #21
  store i8 48, ptr %18, align 1, !tbaa !7
  %19 = getelementptr i8, ptr %18, i64 1
  store i8 0, ptr %19, align 1, !tbaa !7
  %.not9.i93 = icmp eq ptr %5, null
  br i1 %.not9.i93, label %nrv_alloc.exit, label %20

20:                                               ; preds = %.lr.ph.i88
  store ptr %19, ptr %5, align 8, !tbaa !19
  br label %nrv_alloc.exit

21:                                               ; preds = %16
  %22 = bitcast double %.pre-phi to i64
  %.not84 = icmp ult i64 %22, 4503599627370496
  %23 = fmul double %.pre-phi, 0x6010000000000000
  %24 = bitcast double %23 to i64
  %.sink107 = select i1 %.not84, i64 %24, i64 %22
  %.sink106 = select i1 %.not84, i32 -1536, i32 -1022
  %.sroa.0.1 = select i1 %.not84, double %23, double %.pre-phi
  %sum.shift = lshr i64 %.sink107, 52
  %25 = trunc nuw nsw i64 %sum.shift to i32
  %26 = add nsw i32 %.sink106, %25
  store i32 %26, ptr %3, align 4, !tbaa !15
  %spec.store.select = tail call i32 @llvm.umax.i32(i32 %2, i32 1)
  %27 = icmp sgt i32 %spec.store.select, 0
  %28 = select i1 %27, i32 %spec.store.select, i32 15
  %29 = add nuw i32 %28, 1
  %30 = sext i32 %29 to i64
  %31 = tail call noalias ptr @malloc(i64 noundef %30) #21
  %or.cond = icmp ult i32 %2, 15
  br i1 %or.cond, label %32, label %._crit_edge102

._crit_edge102:                                   ; preds = %21
  %.pre103 = bitcast double %.sroa.0.1 to i64
  br label %46

32:                                               ; preds = %21
  %33 = shl nuw nsw i32 %spec.store.select, 2
  %34 = bitcast double %.sroa.0.1 to i64
  %.sroa.0.4.extract.shift36 = lshr i64 %34, 32
  %.sroa.0.4.extract.trunc37 = trunc nuw i64 %.sroa.0.4.extract.shift36 to i32
  %35 = and i32 %.sroa.0.4.extract.trunc37, -2146435073
  %36 = shl nuw nsw i32 %spec.store.select, 22
  %37 = add nuw nsw i32 %36, 1013972992
  %38 = or disjoint i32 %35, %37
  %.sroa.0.4.insert.ext39 = zext i32 %38 to i64
  %.sroa.0.4.insert.shift40 = shl nuw i64 %.sroa.0.4.insert.ext39, 32
  %.sroa.0.4.insert.mask41 = and i64 %34, 4294967295
  %.sroa.0.4.insert.insert42 = or disjoint i64 %.sroa.0.4.insert.shift40, %.sroa.0.4.insert.mask41
  %39 = bitcast i64 %.sroa.0.4.insert.insert42 to double
  %40 = fadd double %39, 1.000000e+00
  %41 = fadd double %40, -1.000000e+00
  %42 = bitcast double %41 to i64
  %sum.shift86 = lshr i64 %42, 52
  %43 = trunc nuw nsw i64 %sum.shift86 to i32
  %reass.sub = sub nsw i32 %26, %33
  %44 = add nsw i32 %reass.sub, -967
  %45 = add nsw i32 %44, %43
  store i32 %45, ptr %3, align 4, !tbaa !15
  br label %46

46:                                               ; preds = %._crit_edge102, %32
  %.pre-phi104 = phi i64 [ %.pre103, %._crit_edge102 ], [ %42, %32 ]
  store i8 49, ptr %31, align 1, !tbaa !7
  %47 = zext nneg i32 %28 to i64
  %48 = getelementptr i8, ptr %31, i64 %47
  %.08196 = getelementptr i8, ptr %31, i64 1
  %49 = icmp ult ptr %.08196, %48
  br i1 %49, label %.lr.ph.preheader, label %._crit_edge

.lr.ph.preheader:                                 ; preds = %46
  %.sroa.0.0.extract.trunc = trunc i64 %.pre-phi104 to i32
  %.sroa.0.4.extract.shift47 = lshr i64 %.pre-phi104, 32
  %.sroa.0.4.extract.trunc48 = trunc nuw i64 %.sroa.0.4.extract.shift47 to i32
  br label %.lr.ph

.lr.ph:                                           ; preds = %.lr.ph.preheader, %.lr.ph
  %.08199 = phi ptr [ %.081, %.lr.ph ], [ %.08196, %.lr.ph.preheader ]
  %.07998 = phi i32 [ %56, %.lr.ph ], [ %.sroa.0.0.extract.trunc, %.lr.ph.preheader ]
  %.08097 = phi i32 [ %55, %.lr.ph ], [ %.sroa.0.4.extract.trunc48, %.lr.ph.preheader ]
  %50 = lshr i32 %.08097, 16
  %51 = and i32 %50, 15
  %52 = zext nneg i32 %51 to i64
  %53 = getelementptr i8, ptr %1, i64 %52
  %54 = load i8, ptr %53, align 1, !tbaa !7
  store i8 %54, ptr %.08199, align 1, !tbaa !7
  %55 = tail call i32 @llvm.fshl.i32(i32 %.08097, i32 %.07998, i32 4)
  %56 = shl i32 %.07998, 4
  %.081 = getelementptr i8, ptr %.08199, i64 1
  %exitcond.not = icmp eq ptr %.081, %48
  br i1 %exitcond.not, label %._crit_edge, label %.lr.ph, !llvm.loop !83

._crit_edge:                                      ; preds = %.lr.ph, %46
  %57 = icmp slt i32 %spec.store.select, 0
  br i1 %57, label %.preheader, label %.loopexit

.preheader:                                       ; preds = %._crit_edge, %.preheader
  %.1 = phi i32 [ %58, %.preheader ], [ 15, %._crit_edge ]
  %58 = add i32 %.1, -1
  %59 = sext i32 %58 to i64
  %60 = getelementptr i8, ptr %31, i64 %59
  %61 = load i8, ptr %60, align 1, !tbaa !7
  %62 = icmp eq i8 %61, 48
  br i1 %62, label %.preheader, label %.loopexit, !llvm.loop !84

.loopexit:                                        ; preds = %.preheader, %._crit_edge
  %.078 = phi i32 [ %spec.store.select, %._crit_edge ], [ %.1, %.preheader ]
  %63 = sext i32 %.078 to i64
  %64 = getelementptr i8, ptr %31, i64 %63
  store i8 0, ptr %64, align 1, !tbaa !7
  %.not87 = icmp eq ptr %5, null
  br i1 %.not87, label %nrv_alloc.exit, label %65

65:                                               ; preds = %.loopexit
  store ptr %64, ptr %5, align 8, !tbaa !19
  br label %nrv_alloc.exit

nrv_alloc.exit:                                   ; preds = %20, %.lr.ph.i88, %11, %._crit_edge.i, %.loopexit, %65, %14
  %.0 = phi ptr [ %15, %14 ], [ %31, %65 ], [ %31, %.loopexit ], [ %10, %._crit_edge.i ], [ %10, %11 ], [ %18, %.lr.ph.i88 ], [ %18, %20 ]
  ret ptr %.0
}